target datalayout = "e-m:e-p270:32:32-p271:32:32-p272:64:64-i64:64-i128:128-f80:128-n8:16:32:64-S128"
target triple = "x86_64-unknown-linux-gnu"

; Function Attrs: mustprogress nounwind uwtable
define dso_local noundef double @_Z7sigmoidd(double noundef %x) #4 {
entry:
  %x.addr = alloca double, align 8
  store double %x, ptr %x.addr, align 8
  %0 = load double, ptr %x.addr, align 8
  %mul = fmul double 5.000000e-01, %0
  %1 = load double, ptr %x.addr, align 8
  %2 = load double, ptr %x.addr, align 8
  %mul1 = fmul double %1, %2
  %add = fadd double 1.000000e+00, %mul1
  %call = call double @sqrt(double noundef %add) #3
  %div = fdiv double %mul, %call
  %add2 = fadd double %div, 5.000000e-01
  ret double %add2
}