; Function Attrs: mustprogress nofree norecurse nosync nounwind willreturn memory(none) uwtable
define dso_local noundef double @_Z7sigmoidd(double noundef %x) local_unnamed_addr #7 {
entry:
  %mul = fmul double %x, 5.000000e-01
  %mul1 = fmul double %x, %x
  %add = fadd double %mul1, 1.000000e+00
  %sqrt = tail call double @llvm.sqrt.f64(double %add)
  %div = fdiv double %mul, %sqrt
  %add2 = fadd double %div, 5.000000e-01
  ret double %add2
}